; Function Attrs: nofree nosync nounwind memory(readwrite, inaccessiblemem: none) uwtable
define void @Hop_ConeCleanAndMark_rec(ptr noundef captures(none) %0) local_unnamed_addr #2 {
  %2 = getelementptr i8, ptr %0, i64 32
  %.val = load i32, ptr %2, align 8
  %3 = and i32 %.val, 22
  %or.cond = icmp eq i32 %3, 4
  br i1 %or.cond, label %4, label %common.ret10

common.ret10:                                     ; preds = %1, %4
  ret void

4:                                                ; preds = %1
  %5 = getelementptr i8, ptr %0, i64 16
  %.val8 = load ptr, ptr %5, align 8, !tbaa !3
  %6 = ptrtoint ptr %.val8 to i64
  %7 = and i64 %6, -2
  %8 = inttoptr i64 %7 to ptr
  tail call void @Hop_ConeCleanAndMark_rec(ptr noundef %8)
  %9 = getelementptr i8, ptr %0, i64 24
  %.val9 = load ptr, ptr %9, align 8, !tbaa !10
  %10 = ptrtoint ptr %.val9 to i64
  %11 = and i64 %10, -2
  %12 = inttoptr i64 %11 to ptr
  tail call void @Hop_ConeCleanAndMark_rec(ptr noundef %12)
  %13 = load i32, ptr %2, align 8
  %14 = or i32 %13, 16
  store i32 %14, ptr %2, align 8
  store ptr null, ptr %0, align 8, !tbaa !29
  br label %common.ret10
}